; Function Attrs: nounwind uwtable
define internal i32 @activate(ptr noundef readonly captures(none) %0) #2 {
  %2 = alloca ptr, align 8
  %3 = alloca i32, align 4
  %4 = alloca i64, align 8
  %5 = getelementptr inbounds nuw i8, ptr %0, i64 72
  %6 = load ptr, ptr %5, align 8, !tbaa !4
  %7 = getelementptr inbounds nuw i8, ptr %0, i64 32
  %8 = load ptr, ptr %7, align 8, !tbaa !24
  %9 = load ptr, ptr %8, align 8, !tbaa !25
  %10 = getelementptr inbounds nuw i8, ptr %0, i64 56
  %11 = load ptr, ptr %10, align 8, !tbaa !27
  %12 = load ptr, ptr %11, align 8, !tbaa !25
  %13 = tail call i32 @ff_outlink_get_status(ptr noundef %12) #6
  %.not = icmp eq i32 %13, 0
  br i1 %.not, label %.critedge, label %14

14:                                               ; preds = %1
  tail call void @ff_inlink_set_status(ptr noundef %9, i32 noundef %13) #6
  br label %60

.critedge:                                        ; preds = %1
  %15 = getelementptr inbounds nuw i8, ptr %0, i64 128
  %16 = load i32, ptr %15, align 8, !tbaa !28
  %.not53 = icmp eq i32 %16, 0
  br i1 %.not53, label %17, label %.thread

17:                                               ; preds = %.critedge
  %18 = load ptr, ptr %7, align 8, !tbaa !24
  %19 = load ptr, ptr %18, align 8, !tbaa !25
  %20 = load ptr, ptr %19, align 8, !tbaa !29
  %.not54 = icmp eq ptr %20, null
  br i1 %.not54, label %.thread, label %21

21:                                               ; preds = %17
  %22 = getelementptr inbounds nuw i8, ptr %20, i64 40
  %23 = load i32, ptr %22, align 8, !tbaa !38
  %.not55 = icmp eq i32 %23, 0
  br i1 %.not55, label %.thread, label %24

24:                                               ; preds = %21
  %25 = getelementptr inbounds nuw i8, ptr %20, i64 32
  %26 = load ptr, ptr %25, align 8, !tbaa !24
  %27 = load ptr, ptr %26, align 8, !tbaa !25
  %28 = getelementptr inbounds nuw i8, ptr %27, i64 32
  %29 = load i32, ptr %28, align 8, !tbaa !39
  switch i32 %29, label %.thread [
    i32 1, label %31
    i32 0, label %30
  ]

30:                                               ; preds = %24
  br label %31

31:                                               ; preds = %24, %30
  %.sink = phi i64 [ 232, %30 ], [ 248, %24 ]
  %.sink68 = phi i64 [ 240, %30 ], [ 256, %24 ]
  %32 = getelementptr inbounds nuw i8, ptr %27, i64 %.sink
  %33 = load i64, ptr %32, align 8, !tbaa !40
  %34 = getelementptr inbounds nuw i8, ptr %9, i64 %.sink68
  %35 = load i64, ptr %34, align 8, !tbaa !40
  %36 = sub nsw i64 %33, %35
  %37 = icmp sgt i64 %36, 0
  br i1 %37, label %38, label %.thread

38:                                               ; preds = %31
  %39 = load i64, ptr %6, align 8, !tbaa !20
  %.044. = tail call i64 @llvm.smin.i64(i64 %39, i64 %36)
  store i64 %.044., ptr %6, align 8, !tbaa !20
  %40 = getelementptr inbounds nuw i8, ptr %6, i64 8
  %41 = load i64, ptr %40, align 8, !tbaa !23
  %42 = tail call i64 @llvm.smax.i64(i64 %41, i64 %36)
  store i64 %42, ptr %40, align 8, !tbaa !23
  br label %.thread

.thread:                                          ; preds = %24, %31, %38, %21, %17, %.critedge
  %43 = tail call i64 @ff_inlink_queued_frames(ptr noundef %9) #6
  %.not56 = icmp eq i64 %43, 0
  br i1 %.not56, label %52, label %44

44:                                               ; preds = %.thread
  call void @llvm.lifetime.start.p0(i64 8, ptr nonnull %2) #6
  store ptr null, ptr %2, align 8, !tbaa !41
  %45 = call i32 @ff_inlink_consume_frame(ptr noundef %9, ptr noundef nonnull %2) #6
  %46 = icmp slt i32 %45, 0
  br i1 %46, label %.thread61, label %47

47:                                               ; preds = %44
  %.not57 = icmp eq i32 %45, 0
  br i1 %.not57, label %51, label %48

48:                                               ; preds = %47
  %49 = load ptr, ptr %2, align 8, !tbaa !41
  %50 = call i32 @ff_filter_frame(ptr noundef %12, ptr noundef %49) #6
  br label %.thread61

.thread61:                                        ; preds = %48, %44
  %.2.ph = phi i32 [ %45, %44 ], [ %50, %48 ]
  call void @llvm.lifetime.end.p0(i64 8, ptr nonnull %2) #6
  br label %60

51:                                               ; preds = %47
  call void @llvm.lifetime.end.p0(i64 8, ptr nonnull %2) #6
  br label %52

52:                                               ; preds = %51, %.thread
  call void @llvm.lifetime.start.p0(i64 4, ptr nonnull %3) #6
  call void @llvm.lifetime.start.p0(i64 8, ptr nonnull %4) #6
  %53 = call i32 @ff_inlink_acknowledge_status(ptr noundef %9, ptr noundef nonnull %3, ptr noundef nonnull %4) #6
  %.not58 = icmp eq i32 %53, 0
  br i1 %.not58, label %57, label %54

54:                                               ; preds = %52
  %55 = load i32, ptr %3, align 4, !tbaa !43
  %56 = load i64, ptr %4, align 8, !tbaa !40
  call void @ff_avfilter_link_set_in_status(ptr noundef %12, i32 noundef %55, i64 noundef %56) #6
  call void @llvm.lifetime.end.p0(i64 8, ptr nonnull %4) #6
  call void @llvm.lifetime.end.p0(i64 4, ptr nonnull %3) #6
  br label %60

57:                                               ; preds = %52
  call void @llvm.lifetime.end.p0(i64 8, ptr nonnull %4) #6
  call void @llvm.lifetime.end.p0(i64 4, ptr nonnull %3) #6
  %58 = call i32 @ff_outlink_frame_wanted(ptr noundef %12) #6
  %.not59 = icmp eq i32 %58, 0
  br i1 %.not59, label %60, label %59

59:                                               ; preds = %57
  call void @ff_inlink_request_frame(ptr noundef %9) #6
  br label %60

60:                                               ; preds = %54, %.thread61, %14, %57, %59
  %.1 = phi i32 [ 0, %59 ], [ 0, %54 ], [ 0, %14 ], [ -1497649742, %57 ], [ %.2.ph, %.thread61 ]
  ret i32 %.1
}